; Function Attrs: mustprogress uwtable
define void @_ZN2cv4UMatC2ENS_5Size_IiEEiRKNS_7Scalar_IdEENS_14UMatUsageFlagsE(ptr noundef nonnull align 8 dereferenceable(80) initializes((0, 28), (32, 48)) %0, i64 %1, i32 noundef %2, ptr noundef nonnull align 8 dereferenceable(32) %3, i32 noundef %4) unnamed_addr #4 align 2 personality ptr @__gxx_personality_v0 {
  %6 = alloca %"class.cv::_InputArray", align 8
  %7 = alloca [2 x i32], align 4
  %.sroa.0.0.extract.trunc = trunc i64 %1 to i32
  %.sroa.2.0.extract.shift = lshr i64 %1, 32
  %.sroa.2.0.extract.trunc = trunc nuw i64 %.sroa.2.0.extract.shift to i32
  store i32 1124007936, ptr %0, align 8, !tbaa !43
  %8 = getelementptr inbounds nuw i8, ptr %0, i64 4
  %9 = getelementptr inbounds nuw i8, ptr %0, i64 8
  %10 = getelementptr inbounds nuw i8, ptr %0, i64 24
  tail call void @llvm.memset.p0.i64(ptr noundef nonnull align 4 dereferenceable(20) %8, i8 0, i64 20, i1 false)
  store i32 %4, ptr %10, align 8, !tbaa !50
  %11 = getelementptr inbounds nuw i8, ptr %0, i64 32
  %12 = getelementptr inbounds nuw i8, ptr %0, i64 48
  tail call void @llvm.memset.p0.i64(ptr noundef nonnull align 8 dereferenceable(16) %11, i8 0, i64 16, i1 false)
  store ptr %9, ptr %12, align 8, !tbaa !51
  %13 = getelementptr inbounds nuw i8, ptr %0, i64 56
  %14 = getelementptr inbounds nuw i8, ptr %0, i64 64
  store ptr %14, ptr %13, align 8, !tbaa !52
  tail call void @llvm.memset.p0.i64(ptr noundef nonnull align 8 dereferenceable(16) %14, i8 0, i64 16, i1 false)
  call void @llvm.lifetime.start.p0(i64 8, ptr nonnull %7) #25
  store i32 %.sroa.2.0.extract.trunc, ptr %7, align 4, !tbaa !28
  %15 = getelementptr inbounds nuw i8, ptr %7, i64 4
  store i32 %.sroa.0.0.extract.trunc, ptr %15, align 4, !tbaa !28
  call void @_ZN2cv4UMat6createEiPKiiNS_14UMatUsageFlagsE(ptr noundef nonnull align 8 dereferenceable(80) %0, i32 noundef 2, ptr noundef nonnull %7, i32 noundef %2, i32 noundef 0)
  call void @llvm.lifetime.end.p0(i64 8, ptr nonnull %7) #25
  call void @llvm.lifetime.start.p0(i64 24, ptr nonnull %6) #25
  %16 = getelementptr inbounds nuw i8, ptr %6, i64 16
  store i32 -1056833530, ptr %6, align 8, !tbaa !53
  %17 = getelementptr inbounds nuw i8, ptr %6, i64 8
  store ptr %3, ptr %17, align 8, !tbaa !56
  store i64 17179869185, ptr %16, align 8
  %18 = call noundef nonnull align 8 dereferenceable(24) ptr @_ZN2cv7noArrayEv()
  %19 = call noundef nonnull align 8 dereferenceable(80) ptr @_ZN2cv4UMat5setToERKNS_11_InputArrayES3_(ptr noundef nonnull align 8 dereferenceable(80) %0, ptr noundef nonnull align 8 dereferenceable(24) %6, ptr noundef nonnull align 8 dereferenceable(24) %18)
  call void @llvm.lifetime.end.p0(i64 24, ptr nonnull %6) #25
  ret void
}